target datalayout = "e-m:e-p270:32:32-p271:32:32-p272:64:64-i64:64-i128:128-f80:128-n8:16:32:64-S128"
target triple = "x86_64-pc-linux-gnu"

%class.TimeInstant = type { %class.CounterRepresentation }
%class.CounterRepresentation = type { %class.Representation }
%class.Representation = type { i64 }

$_Z12jdouble_castl = comdat any

$_Z11jfloat_casti = comdat any

$_ZN11TimeInstantI21CounterRepresentation33FastUnorderedElapsedCounterSourceEC2El = comdat any

$_ZN11TimeInstantI21CounterRepresentation33FastUnorderedElapsedCounterSourceE3nowEv = comdat any

$_ZNK21CounterRepresentationI33FastUnorderedElapsedCounterSourceE5valueEv = comdat any

$_ZNK14RepresentationI33FastUnorderedElapsedCounterSourceEeqERKS1_ = comdat any

$_ZNK14RepresentationI33FastUnorderedElapsedCounterSourceEgtERKS1_ = comdat any

$_ZN11TimeInstantI21CounterRepresentation33FastUnorderedElapsedCounterSourceEC2Ev = comdat any

$_ZN11TimeInstantI21CounterRepresentation33FastUnorderedElapsedCounterSourceE5stampEv = comdat any

$_ZN21CounterRepresentationI33FastUnorderedElapsedCounterSourceEC2Ev = comdat any

$_ZN14RepresentationI33FastUnorderedElapsedCounterSourceEC2Ev = comdat any

$_ZN21CounterRepresentationI33FastUnorderedElapsedCounterSourceEC2El = comdat any

@_ZL11min_jdouble = internal global double 0.000000e+00, align 8
@_ZL11max_jdouble = internal global double 0.000000e+00, align 8
@_ZL10min_jfloat = internal global float 0.000000e+00, align 4
@_ZL10max_jfloat = internal global float 0.000000e+00, align 4
@_ZN13GranularTimer12_granularityE = hidden global i64 0, align 8
@_ZN13GranularTimer8_counterE = hidden global i64 0, align 8
@_ZN13GranularTimer18_finish_time_ticksE = hidden global %class.TimeInstant zeroinitializer, align 8
@_ZN13GranularTimer17_start_time_ticksE = hidden global %class.TimeInstant zeroinitializer, align 8
@_ZN13GranularTimer9_finishedE = hidden global i8 0, align 1
@llvm.global_ctors = appending global [1 x { i32, ptr, ptr }] [{ i32, ptr, ptr } { i32 65535, ptr @_GLOBAL__sub_I_granularTimer.cpp, ptr null }]

; Function Attrs: nounwind uwtable
define internal void @__cxx_global_var_init() #0 section ".text.startup" {
  %1 = call noundef double @_Z12jdouble_castl(i64 noundef 1)
  store double %1, ptr @_ZL11min_jdouble, align 8
  ret void
}

; Function Attrs: mustprogress nounwind uwtable
define linkonce_odr hidden noundef double @_Z12jdouble_castl(i64 noundef %0) #1 comdat {
  %2 = alloca i64, align 8
  store i64 %0, ptr %2, align 8
  %3 = load double, ptr %2, align 8
  ret double %3
}

; Function Attrs: nounwind uwtable
define internal void @__cxx_global_var_init.1() #0 section ".text.startup" {
  %1 = call noundef double @_Z12jdouble_castl(i64 noundef 9218868437227405311)
  store double %1, ptr @_ZL11max_jdouble, align 8
  ret void
}

; Function Attrs: nounwind uwtable
define internal void @__cxx_global_var_init.2() #0 section ".text.startup" {
  %1 = call noundef float @_Z11jfloat_casti(i32 noundef 1)
  store float %1, ptr @_ZL10min_jfloat, align 4
  ret void
}

; Function Attrs: mustprogress nounwind uwtable
define linkonce_odr hidden noundef float @_Z11jfloat_casti(i32 noundef %0) #1 comdat {
  %2 = alloca i32, align 4
  store i32 %0, ptr %2, align 4
  %3 = load float, ptr %2, align 4
  ret float %3
}

; Function Attrs: nounwind uwtable
define internal void @__cxx_global_var_init.3() #0 section ".text.startup" {
  %1 = call noundef float @_Z11jfloat_casti(i32 noundef 2139095039)
  store float %1, ptr @_ZL10max_jfloat, align 4
  ret void
}

; Function Attrs: nounwind uwtable
define internal void @__cxx_global_var_init.4() #0 section ".text.startup" {
  call void @_ZN11TimeInstantI21CounterRepresentation33FastUnorderedElapsedCounterSourceEC2El(ptr noundef nonnull align 8 dereferenceable(8) @_ZN13GranularTimer18_finish_time_ticksE, i64 noundef 0)
  ret void
}

; Function Attrs: mustprogress nounwind uwtable
define linkonce_odr hidden void @_ZN11TimeInstantI21CounterRepresentation33FastUnorderedElapsedCounterSourceEC2El(ptr noundef nonnull align 8 dereferenceable(8) %0, i64 noundef %1) unnamed_addr #1 comdat align 2 {
  %3 = alloca ptr, align 8
  %4 = alloca i64, align 8
  store ptr %0, ptr %3, align 8
  store i64 %1, ptr %4, align 8
  %5 = load ptr, ptr %3, align 8
  %6 = load i64, ptr %4, align 8
  call void @_ZN21CounterRepresentationI33FastUnorderedElapsedCounterSourceEC2El(ptr noundef nonnull align 8 dereferenceable(8) %5, i64 noundef %6)
  ret void
}

; Function Attrs: nounwind uwtable
define internal void @__cxx_global_var_init.5() #0 section ".text.startup" {
  call void @_ZN11TimeInstantI21CounterRepresentation33FastUnorderedElapsedCounterSourceEC2El(ptr noundef nonnull align 8 dereferenceable(8) @_ZN13GranularTimer17_start_time_ticksE, i64 noundef 0)
  ret void
}

; Function Attrs: mustprogress nounwind uwtable
define hidden void @_ZN13GranularTimer5startEll(i64 noundef %0, i64 noundef %1) #1 align 2 {
  %3 = alloca i64, align 8
  %4 = alloca i64, align 8
  %5 = alloca %class.TimeInstant, align 8
  %6 = alloca i64, align 8
  %7 = alloca %class.TimeInstant, align 8
  store i64 %0, ptr %3, align 8
  store i64 %1, ptr %4, align 8
  %8 = load i64, ptr %4, align 8
  store i64 %8, ptr @_ZN13GranularTimer12_granularityE, align 8
  %9 = load i64, ptr %4, align 8
  store i64 %9, ptr @_ZN13GranularTimer8_counterE, align 8
  %10 = call i64 @_ZN11TimeInstantI21CounterRepresentation33FastUnorderedElapsedCounterSourceE3nowEv()
  %11 = getelementptr inbounds %class.TimeInstant, ptr %5, i32 0, i32 0
  %12 = getelementptr inbounds %class.CounterRepresentation, ptr %11, i32 0, i32 0
  %13 = getelementptr inbounds %class.Representation, ptr %12, i32 0, i32 0
  store i64 %10, ptr %13, align 8
  call void @llvm.memcpy.p0.p0.i64(ptr align 8 @_ZN13GranularTimer17_start_time_ticksE, ptr align 8 %5, i64 8, i1 false)
  %14 = call noundef i64 @_ZNK21CounterRepresentationI33FastUnorderedElapsedCounterSourceE5valueEv(ptr noundef nonnull align 8 dereferenceable(8) @_ZN13GranularTimer17_start_time_ticksE)
  %15 = load i64, ptr %3, align 8
  %16 = add i64 %14, %15
  store i64 %16, ptr %6, align 8
  %17 = load i64, ptr %6, align 8
  %18 = icmp ugt i64 %17, 9223372036854775807
  br i1 %18, label %19, label %20

19:                                               ; preds = %2
  call void @_ZN11TimeInstantI21CounterRepresentation33FastUnorderedElapsedCounterSourceEC2El(ptr noundef nonnull align 8 dereferenceable(8) %7, i64 noundef 9223372036854775807)
  br label %22

20:                                               ; preds = %2
  %21 = load i64, ptr %6, align 8
  call void @_ZN11TimeInstantI21CounterRepresentation33FastUnorderedElapsedCounterSourceEC2El(ptr noundef nonnull align 8 dereferenceable(8) %7, i64 noundef %21)
  br label %22

22:                                               ; preds = %20, %19
  call void @llvm.memcpy.p0.p0.i64(ptr align 8 @_ZN13GranularTimer18_finish_time_ticksE, ptr align 8 %7, i64 8, i1 false)
  %23 = call noundef zeroext i1 @_ZNK14RepresentationI33FastUnorderedElapsedCounterSourceEeqERKS1_(ptr noundef nonnull align 8 dereferenceable(8) @_ZN13GranularTimer18_finish_time_ticksE, ptr noundef nonnull align 8 dereferenceable(8) @_ZN13GranularTimer17_start_time_ticksE)
  %24 = zext i1 %23 to i8
  store i8 %24, ptr @_ZN13GranularTimer9_finishedE, align 1
  ret void
}

; Function Attrs: mustprogress nounwind uwtable
define linkonce_odr hidden i64 @_ZN11TimeInstantI21CounterRepresentation33FastUnorderedElapsedCounterSourceE3nowEv() #1 comdat align 2 {
  %1 = alloca %class.TimeInstant, align 8
  call void @_ZN11TimeInstantI21CounterRepresentation33FastUnorderedElapsedCounterSourceEC2Ev(ptr noundef nonnull align 8 dereferenceable(8) %1)
  call void @_ZN11TimeInstantI21CounterRepresentation33FastUnorderedElapsedCounterSourceE5stampEv(ptr noundef nonnull align 8 dereferenceable(8) %1)
  %2 = getelementptr inbounds %class.TimeInstant, ptr %1, i32 0, i32 0
  %3 = getelementptr inbounds %class.CounterRepresentation, ptr %2, i32 0, i32 0
  %4 = getelementptr inbounds %class.Representation, ptr %3, i32 0, i32 0
  %5 = load i64, ptr %4, align 8
  ret i64 %5
}

; Function Attrs: nocallback nofree nounwind willreturn memory(argmem: readwrite)
declare void @llvm.memcpy.p0.p0.i64(ptr noalias nocapture writeonly, ptr noalias nocapture readonly, i64, i1 immarg) #2

; Function Attrs: mustprogress nounwind uwtable
define linkonce_odr hidden noundef i64 @_ZNK21CounterRepresentationI33FastUnorderedElapsedCounterSourceE5valueEv(ptr noundef nonnull align 8 dereferenceable(8) %0) #1 comdat align 2 {
  %2 = alloca ptr, align 8
  store ptr %0, ptr %2, align 8
  %3 = load ptr, ptr %2, align 8
  %4 = getelementptr inbounds %class.Representation, ptr %3, i32 0, i32 0
  %5 = load i64, ptr %4, align 8
  ret i64 %5
}

; Function Attrs: mustprogress nounwind uwtable
define linkonce_odr hidden noundef zeroext i1 @_ZNK14RepresentationI33FastUnorderedElapsedCounterSourceEeqERKS1_(ptr noundef nonnull align 8 dereferenceable(8) %0, ptr noundef nonnull align 8 dereferenceable(8) %1) #1 comdat align 2 {
  %3 = alloca ptr, align 8
  %4 = alloca ptr, align 8
  store ptr %0, ptr %3, align 8
  store ptr %1, ptr %4, align 8
  %5 = load ptr, ptr %3, align 8
  %6 = getelementptr inbounds %class.Representation, ptr %5, i32 0, i32 0
  %7 = load i64, ptr %6, align 8
  %8 = load ptr, ptr %4, align 8
  %9 = getelementptr inbounds %class.Representation, ptr %8, i32 0, i32 0
  %10 = load i64, ptr %9, align 8
  %11 = icmp eq i64 %7, %10
  ret i1 %11
}

; Function Attrs: mustprogress nounwind uwtable
define hidden void @_ZN13GranularTimer4stopEv() #1 align 2 {
  %1 = alloca %class.TimeInstant, align 8
  %2 = load i8, ptr @_ZN13GranularTimer9_finishedE, align 1
  %3 = trunc i8 %2 to i1
  br i1 %3, label %9, label %4

4:                                                ; preds = %0
  %5 = call i64 @_ZN11TimeInstantI21CounterRepresentation33FastUnorderedElapsedCounterSourceE3nowEv()
  %6 = getelementptr inbounds %class.TimeInstant, ptr %1, i32 0, i32 0
  %7 = getelementptr inbounds %class.CounterRepresentation, ptr %6, i32 0, i32 0
  %8 = getelementptr inbounds %class.Representation, ptr %7, i32 0, i32 0
  store i64 %5, ptr %8, align 8
  call void @llvm.memcpy.p0.p0.i64(ptr align 8 @_ZN13GranularTimer18_finish_time_ticksE, ptr align 8 %1, i64 8, i1 false)
  br label %9

9:                                                ; preds = %4, %0
  ret void
}

; Function Attrs: mustprogress nounwind uwtable
define hidden noundef nonnull align 8 dereferenceable(8) ptr @_ZN13GranularTimer10start_timeEv() #1 align 2 {
  ret ptr @_ZN13GranularTimer17_start_time_ticksE
}

; Function Attrs: mustprogress nounwind uwtable
define hidden noundef nonnull align 8 dereferenceable(8) ptr @_ZN13GranularTimer8end_timeEv() #1 align 2 {
  ret ptr @_ZN13GranularTimer18_finish_time_ticksE
}

; Function Attrs: mustprogress nounwind uwtable
define hidden noundef zeroext i1 @_ZN13GranularTimer11is_finishedEv() #1 align 2 {
  %1 = alloca i1, align 1
  %2 = alloca %class.TimeInstant, align 8
  %3 = load i64, ptr @_ZN13GranularTimer8_counterE, align 8
  %4 = add nsw i64 %3, -1
  store i64 %4, ptr @_ZN13GranularTimer8_counterE, align 8
  %5 = icmp eq i64 %4, 0
  br i1 %5, label %6, label %19

6:                                                ; preds = %0
  %7 = load i8, ptr @_ZN13GranularTimer9_finishedE, align 1
  %8 = trunc i8 %7 to i1
  br i1 %8, label %9, label %10

9:                                                ; preds = %6
  store i64 1, ptr @_ZN13GranularTimer8_counterE, align 8
  store i1 true, ptr %1, align 1
  br label %20

10:                                               ; preds = %6
  %11 = call i64 @_ZN11TimeInstantI21CounterRepresentation33FastUnorderedElapsedCounterSourceE3nowEv()
  %12 = getelementptr inbounds %class.TimeInstant, ptr %2, i32 0, i32 0
  %13 = getelementptr inbounds %class.CounterRepresentation, ptr %12, i32 0, i32 0
  %14 = getelementptr inbounds %class.Representation, ptr %13, i32 0, i32 0
  store i64 %11, ptr %14, align 8
  %15 = call noundef zeroext i1 @_ZNK14RepresentationI33FastUnorderedElapsedCounterSourceEgtERKS1_(ptr noundef nonnull align 8 dereferenceable(8) %2, ptr noundef nonnull align 8 dereferenceable(8) @_ZN13GranularTimer18_finish_time_ticksE)
  br i1 %15, label %16, label %17

16:                                               ; preds = %10
  store i8 1, ptr @_ZN13GranularTimer9_finishedE, align 1
  store i64 1, ptr @_ZN13GranularTimer8_counterE, align 8
  store i1 true, ptr %1, align 1
  br label %20

17:                                               ; preds = %10
  %18 = load i64, ptr @_ZN13GranularTimer12_granularityE, align 8
  store i64 %18, ptr @_ZN13GranularTimer8_counterE, align 8
  br label %19

19:                                               ; preds = %17, %0
  store i1 false, ptr %1, align 1
  br label %20

20:                                               ; preds = %19, %16, %9
  %21 = load i1, ptr %1, align 1
  ret i1 %21
}

; Function Attrs: mustprogress nounwind uwtable
define linkonce_odr hidden noundef zeroext i1 @_ZNK14RepresentationI33FastUnorderedElapsedCounterSourceEgtERKS1_(ptr noundef nonnull align 8 dereferenceable(8) %0, ptr noundef nonnull align 8 dereferenceable(8) %1) #1 comdat align 2 {
  %3 = alloca ptr, align 8
  %4 = alloca ptr, align 8
  store ptr %0, ptr %3, align 8
  store ptr %1, ptr %4, align 8
  %5 = load ptr, ptr %3, align 8
  %6 = getelementptr inbounds %class.Representation, ptr %5, i32 0, i32 0
  %7 = load i64, ptr %6, align 8
  %8 = load ptr, ptr %4, align 8
  %9 = getelementptr inbounds %class.Representation, ptr %8, i32 0, i32 0
  %10 = load i64, ptr %9, align 8
  %11 = icmp sgt i64 %7, %10
  ret i1 %11
}

; Function Attrs: mustprogress nounwind uwtable
define linkonce_odr hidden void @_ZN11TimeInstantI21CounterRepresentation33FastUnorderedElapsedCounterSourceEC2Ev(ptr noundef nonnull align 8 dereferenceable(8) %0) unnamed_addr #1 comdat align 2 {
  %2 = alloca ptr, align 8
  store ptr %0, ptr %2, align 8
  %3 = load ptr, ptr %2, align 8
  call void @_ZN21CounterRepresentationI33FastUnorderedElapsedCounterSourceEC2Ev(ptr noundef nonnull align 8 dereferenceable(8) %3)
  ret void
}

; Function Attrs: mustprogress nounwind uwtable
define linkonce_odr hidden void @_ZN11TimeInstantI21CounterRepresentation33FastUnorderedElapsedCounterSourceE5stampEv(ptr noundef nonnull align 8 dereferenceable(8) %0) #1 comdat align 2 {
  %2 = alloca ptr, align 8
  store ptr %0, ptr %2, align 8
  %3 = load ptr, ptr %2, align 8
  %4 = call noundef i64 @_ZN33FastUnorderedElapsedCounterSource3nowEv()
  %5 = getelementptr inbounds %class.Representation, ptr %3, i32 0, i32 0
  store i64 %4, ptr %5, align 8
  ret void
}

; Function Attrs: mustprogress nounwind uwtable
define linkonce_odr hidden void @_ZN21CounterRepresentationI33FastUnorderedElapsedCounterSourceEC2Ev(ptr noundef nonnull align 8 dereferenceable(8) %0) unnamed_addr #1 comdat align 2 {
  %2 = alloca ptr, align 8
  store ptr %0, ptr %2, align 8
  %3 = load ptr, ptr %2, align 8
  call void @_ZN14RepresentationI33FastUnorderedElapsedCounterSourceEC2Ev(ptr noundef nonnull align 8 dereferenceable(8) %3)
  ret void
}

; Function Attrs: mustprogress nounwind uwtable
define linkonce_odr hidden void @_ZN14RepresentationI33FastUnorderedElapsedCounterSourceEC2Ev(ptr noundef nonnull align 8 dereferenceable(8) %0) unnamed_addr #1 comdat align 2 {
  %2 = alloca ptr, align 8
  store ptr %0, ptr %2, align 8
  %3 = load ptr, ptr %2, align 8
  %4 = getelementptr inbounds %class.Representation, ptr %3, i32 0, i32 0
  store i64 0, ptr %4, align 8
  ret void
}

declare noundef i64 @_ZN33FastUnorderedElapsedCounterSource3nowEv() #3

; Function Attrs: mustprogress nounwind uwtable
define linkonce_odr hidden void @_ZN21CounterRepresentationI33FastUnorderedElapsedCounterSourceEC2El(ptr noundef nonnull align 8 dereferenceable(8) %0, i64 noundef %1) unnamed_addr #1 comdat align 2 {
  %3 = alloca ptr, align 8
  %4 = alloca i64, align 8
  store ptr %0, ptr %3, align 8
  store i64 %1, ptr %4, align 8
  %5 = load ptr, ptr %3, align 8
  call void @_ZN14RepresentationI33FastUnorderedElapsedCounterSourceEC2Ev(ptr noundef nonnull align 8 dereferenceable(8) %5)
  %6 = load i64, ptr %4, align 8
  %7 = getelementptr inbounds %class.Representation, ptr %5, i32 0, i32 0
  store i64 %6, ptr %7, align 8
  ret void
}

; Function Attrs: nounwind uwtable
define internal void @_GLOBAL__sub_I_granularTimer.cpp() #0 section ".text.startup" {
  call void @__cxx_global_var_init()
  call void @__cxx_global_var_init.1()
  call void @__cxx_global_var_init.2()
  call void @__cxx_global_var_init.3()
  call void @__cxx_global_var_init.4()
  call void @__cxx_global_var_init.5()
  ret void
}


!llvm.module.flags = !{!0, !1, !2, !3, !4, !5}

!0 = !{i32 7, !"Dwarf Version", i32 5}
!1 = !{i32 2, !"Debug Info Version", i32 3}
!2 = !{i32 1, !"wchar_size", i32 4}
!3 = !{i32 8, !"PIC Level", i32 2}
!4 = !{i32 7, !"uwtable", i32 2}
!5 = !{i32 7, !"frame-pointer", i32 2}
